; Function Attrs: nounwind uwtable
define internal void @HIDAPI_DriverSwitch_SetDevicePlayerIndex(ptr noundef readonly captures(none) %0, i32 %1, i32 noundef %2) #0 {
  %4 = alloca i8, align 1
  %5 = getelementptr inbounds nuw i8, ptr %0, i64 112
  %6 = load ptr, ptr %5, align 8
  %7 = getelementptr inbounds nuw i8, ptr %6, i64 8
  %8 = load ptr, ptr %7, align 8
  %.not = icmp eq ptr %8, null
  br i1 %.not, label %UpdateSlotLED.exit, label %9

9:                                                ; preds = %3
  %10 = getelementptr inbounds nuw i8, ptr %6, i64 20
  store i32 %2, ptr %10, align 4
  %11 = getelementptr inbounds nuw i8, ptr %6, i64 16
  %12 = load i8, ptr %11, align 8, !range !3, !noundef !4
  %13 = trunc nuw i8 %12 to i1
  br i1 %13, label %UpdateSlotLED.exit, label %14

14:                                               ; preds = %9
  call void @llvm.lifetime.start.p0(i64 1, ptr nonnull %4) #9
  store i8 0, ptr %4, align 1
  %15 = getelementptr inbounds nuw i8, ptr %6, i64 18
  %16 = load i8, ptr %15, align 2, !range !3, !noundef !4
  %17 = trunc nuw i8 %16 to i1
  %18 = icmp sgt i32 %2, -1
  %or.cond = and i1 %18, %17
  br i1 %or.cond, label %19, label %23

19:                                               ; preds = %14
  %20 = and i32 %2, 3
  %21 = shl nuw nsw i32 1, %20
  %22 = trunc nuw nsw i32 %21 to i8
  store i8 %22, ptr %4, align 1
  br label %23

23:                                               ; preds = %19, %14
  %24 = call fastcc zeroext i1 @WriteSubcommand(ptr noundef nonnull %6, i32 noundef 48, ptr noundef nonnull %4, i8 noundef zeroext 1, ptr noundef null)
  call void @llvm.lifetime.end.p0(i64 1, ptr nonnull %4) #9
  br label %UpdateSlotLED.exit

UpdateSlotLED.exit:                               ; preds = %23, %9, %3
  ret void
}